target datalayout = "e-m:e-p270:32:32-p271:32:32-p272:64:64-i64:64-i128:128-f80:128-n8:16:32:64-S128"
target triple = "x86_64-pc-linux-gnu"

%struct.SDL_BlitInfo = type { ptr, ptr, i32, i32, i32, i32, ptr, ptr, i32, i32, i32, i32, ptr, ptr, ptr, ptr, ptr, ptr, i32, i32, i8, i8, i8, i8 }

; Function Attrs: nounwind uwtable
define internal void @Blit16to16SurfaceAlpha128(ptr noundef %0, i16 noundef zeroext %1) #0 {
  %3 = alloca ptr, align 8
  %4 = alloca i16, align 2
  %5 = alloca i32, align 4
  %6 = alloca i32, align 4
  %7 = alloca ptr, align 8
  %8 = alloca i32, align 4
  %9 = alloca ptr, align 8
  %10 = alloca i32, align 4
  %11 = alloca i32, align 4
  %12 = alloca i32, align 4
  %13 = alloca i16, align 2
  %14 = alloca i16, align 2
  %15 = alloca i32, align 4
  %16 = alloca i32, align 4
  %17 = alloca i32, align 4
  %18 = alloca i16, align 2
  %19 = alloca i16, align 2
  %20 = alloca i32, align 4
  %21 = alloca i16, align 2
  %22 = alloca i16, align 2
  %23 = alloca i32, align 4
  %24 = alloca i32, align 4
  %25 = alloca i16, align 2
  %26 = alloca i16, align 2
  store ptr %0, ptr %3, align 8
  store i16 %1, ptr %4, align 2
  call void @llvm.lifetime.start.p0(i64 4, ptr %5) #3
  %27 = load ptr, ptr %3, align 8
  %28 = getelementptr inbounds nuw %struct.SDL_BlitInfo, ptr %27, i32 0, i32 8
  %29 = load i32, ptr %28, align 8
  store i32 %29, ptr %5, align 4
  call void @llvm.lifetime.start.p0(i64 4, ptr %6) #3
  %30 = load ptr, ptr %3, align 8
  %31 = getelementptr inbounds nuw %struct.SDL_BlitInfo, ptr %30, i32 0, i32 9
  %32 = load i32, ptr %31, align 4
  store i32 %32, ptr %6, align 4
  call void @llvm.lifetime.start.p0(i64 8, ptr %7) #3
  %33 = load ptr, ptr %3, align 8
  %34 = getelementptr inbounds nuw %struct.SDL_BlitInfo, ptr %33, i32 0, i32 1
  %35 = load ptr, ptr %34, align 8
  store ptr %35, ptr %7, align 8
  call void @llvm.lifetime.start.p0(i64 4, ptr %8) #3
  %36 = load ptr, ptr %3, align 8
  %37 = getelementptr inbounds nuw %struct.SDL_BlitInfo, ptr %36, i32 0, i32 5
  %38 = load i32, ptr %37, align 4
  %39 = ashr i32 %38, 1
  store i32 %39, ptr %8, align 4
  call void @llvm.lifetime.start.p0(i64 8, ptr %9) #3
  %40 = load ptr, ptr %3, align 8
  %41 = getelementptr inbounds nuw %struct.SDL_BlitInfo, ptr %40, i32 0, i32 7
  %42 = load ptr, ptr %41, align 8
  store ptr %42, ptr %9, align 8
  call void @llvm.lifetime.start.p0(i64 4, ptr %10) #3
  %43 = load ptr, ptr %3, align 8
  %44 = getelementptr inbounds nuw %struct.SDL_BlitInfo, ptr %43, i32 0, i32 11
  %45 = load i32, ptr %44, align 4
  %46 = ashr i32 %45, 1
  store i32 %46, ptr %10, align 4
  br label %47

47:                                               ; preds = %342, %2
  %48 = load i32, ptr %6, align 4
  %49 = add nsw i32 %48, -1
  store i32 %49, ptr %6, align 4
  %50 = icmp ne i32 %48, 0
  br i1 %50, label %51, label %343

51:                                               ; preds = %47
  %52 = load ptr, ptr %7, align 8
  %53 = ptrtoint ptr %52 to i64
  %54 = load ptr, ptr %9, align 8
  %55 = ptrtoint ptr %54 to i64
  %56 = xor i64 %53, %55
  %57 = and i64 %56, 2
  %58 = icmp ne i64 %57, 0
  br i1 %58, label %59, label %207

59:                                               ; preds = %51
  call void @llvm.lifetime.start.p0(i64 4, ptr %11) #3
  call void @llvm.lifetime.start.p0(i64 4, ptr %12) #3
  %60 = load i32, ptr %5, align 4
  store i32 %60, ptr %12, align 4
  %61 = load ptr, ptr %9, align 8
  %62 = ptrtoint ptr %61 to i64
  %63 = and i64 %62, 2
  %64 = icmp ne i64 %63, 0
  br i1 %64, label %65, label %101

65:                                               ; preds = %59
  call void @llvm.lifetime.start.p0(i64 2, ptr %13) #3
  %66 = load ptr, ptr %9, align 8
  %67 = load i16, ptr %66, align 2
  store i16 %67, ptr %13, align 2
  call void @llvm.lifetime.start.p0(i64 2, ptr %14) #3
  %68 = load ptr, ptr %7, align 8
  %69 = load i16, ptr %68, align 2
  store i16 %69, ptr %14, align 2
  %70 = load i16, ptr %14, align 2
  %71 = zext i16 %70 to i32
  %72 = load i16, ptr %4, align 2
  %73 = zext i16 %72 to i32
  %74 = and i32 %71, %73
  %75 = load i16, ptr %13, align 2
  %76 = zext i16 %75 to i32
  %77 = load i16, ptr %4, align 2
  %78 = zext i16 %77 to i32
  %79 = and i32 %76, %78
  %80 = add nsw i32 %74, %79
  %81 = ashr i32 %80, 1
  %82 = load i16, ptr %14, align 2
  %83 = zext i16 %82 to i32
  %84 = load i16, ptr %13, align 2
  %85 = zext i16 %84 to i32
  %86 = and i32 %83, %85
  %87 = load i16, ptr %4, align 2
  %88 = zext i16 %87 to i32
  %89 = xor i32 %88, -1
  %90 = and i32 %89, 65535
  %91 = and i32 %86, %90
  %92 = add nsw i32 %81, %91
  %93 = trunc i32 %92 to i16
  %94 = load ptr, ptr %9, align 8
  store i16 %93, ptr %94, align 2
  %95 = load ptr, ptr %9, align 8
  %96 = getelementptr inbounds nuw i16, ptr %95, i32 1
  store ptr %96, ptr %9, align 8
  %97 = load ptr, ptr %7, align 8
  %98 = getelementptr inbounds nuw i16, ptr %97, i32 1
  store ptr %98, ptr %7, align 8
  %99 = load i32, ptr %12, align 4
  %100 = add nsw i32 %99, -1
  store i32 %100, ptr %12, align 4
  call void @llvm.lifetime.end.p0(i64 2, ptr %14) #3
  call void @llvm.lifetime.end.p0(i64 2, ptr %13) #3
  br label %101

101:                                              ; preds = %65, %59
  %102 = load ptr, ptr %7, align 8
  %103 = getelementptr inbounds nuw i16, ptr %102, i32 1
  store ptr %103, ptr %7, align 8
  %104 = load ptr, ptr %7, align 8
  %105 = getelementptr inbounds i32, ptr %104, i64 -1
  %106 = load i32, ptr %105, align 4
  store i32 %106, ptr %11, align 4
  br label %107

107:                                              ; preds = %110, %101
  %108 = load i32, ptr %12, align 4
  %109 = icmp sgt i32 %108, 1
  br i1 %109, label %110, label %159

110:                                              ; preds = %107
  call void @llvm.lifetime.start.p0(i64 4, ptr %15) #3
  call void @llvm.lifetime.start.p0(i64 4, ptr %16) #3
  call void @llvm.lifetime.start.p0(i64 4, ptr %17) #3
  %111 = load ptr, ptr %7, align 8
  %112 = load i32, ptr %111, align 4
  store i32 %112, ptr %15, align 4
  %113 = load ptr, ptr %9, align 8
  %114 = load i32, ptr %113, align 4
  store i32 %114, ptr %16, align 4
  %115 = load i32, ptr %11, align 4
  %116 = lshr i32 %115, 16
  %117 = load i32, ptr %15, align 4
  %118 = shl i32 %117, 16
  %119 = add i32 %116, %118
  store i32 %119, ptr %17, align 4
  %120 = load i32, ptr %15, align 4
  store i32 %120, ptr %11, align 4
  %121 = load i32, ptr %17, align 4
  %122 = load i16, ptr %4, align 2
  %123 = zext i16 %122 to i32
  %124 = load i16, ptr %4, align 2
  %125 = zext i16 %124 to i32
  %126 = shl i32 %125, 16
  %127 = or i32 %123, %126
  %128 = and i32 %121, %127
  %129 = lshr i32 %128, 1
  %130 = load i32, ptr %16, align 4
  %131 = load i16, ptr %4, align 2
  %132 = zext i16 %131 to i32
  %133 = load i16, ptr %4, align 2
  %134 = zext i16 %133 to i32
  %135 = shl i32 %134, 16
  %136 = or i32 %132, %135
  %137 = and i32 %130, %136
  %138 = lshr i32 %137, 1
  %139 = add i32 %129, %138
  %140 = load i32, ptr %17, align 4
  %141 = load i32, ptr %16, align 4
  %142 = and i32 %140, %141
  %143 = load i16, ptr %4, align 2
  %144 = zext i16 %143 to i32
  %145 = load i16, ptr %4, align 2
  %146 = zext i16 %145 to i32
  %147 = shl i32 %146, 16
  %148 = or i32 %144, %147
  %149 = xor i32 %148, -1
  %150 = and i32 %142, %149
  %151 = add i32 %139, %150
  %152 = load ptr, ptr %9, align 8
  store i32 %151, ptr %152, align 4
  %153 = load ptr, ptr %9, align 8
  %154 = getelementptr inbounds i16, ptr %153, i64 2
  store ptr %154, ptr %9, align 8
  %155 = load ptr, ptr %7, align 8
  %156 = getelementptr inbounds i16, ptr %155, i64 2
  store ptr %156, ptr %7, align 8
  %157 = load i32, ptr %12, align 4
  %158 = sub nsw i32 %157, 2
  store i32 %158, ptr %12, align 4
  call void @llvm.lifetime.end.p0(i64 4, ptr %17) #3
  call void @llvm.lifetime.end.p0(i64 4, ptr %16) #3
  call void @llvm.lifetime.end.p0(i64 4, ptr %15) #3
  br label %107, !llvm.loop !32

159:                                              ; preds = %107
  %160 = load i32, ptr %12, align 4
  %161 = icmp ne i32 %160, 0
  br i1 %161, label %162, label %197

162:                                              ; preds = %159
  call void @llvm.lifetime.start.p0(i64 2, ptr %18) #3
  %163 = load ptr, ptr %9, align 8
  %164 = load i16, ptr %163, align 2
  store i16 %164, ptr %18, align 2
  call void @llvm.lifetime.start.p0(i64 2, ptr %19) #3
  %165 = load i32, ptr %11, align 4
  %166 = lshr i32 %165, 16
  %167 = trunc i32 %166 to i16
  store i16 %167, ptr %19, align 2
  %168 = load i16, ptr %19, align 2
  %169 = zext i16 %168 to i32
  %170 = load i16, ptr %4, align 2
  %171 = zext i16 %170 to i32
  %172 = and i32 %169, %171
  %173 = load i16, ptr %18, align 2
  %174 = zext i16 %173 to i32
  %175 = load i16, ptr %4, align 2
  %176 = zext i16 %175 to i32
  %177 = and i32 %174, %176
  %178 = add nsw i32 %172, %177
  %179 = ashr i32 %178, 1
  %180 = load i16, ptr %19, align 2
  %181 = zext i16 %180 to i32
  %182 = load i16, ptr %18, align 2
  %183 = zext i16 %182 to i32
  %184 = and i32 %181, %183
  %185 = load i16, ptr %4, align 2
  %186 = zext i16 %185 to i32
  %187 = xor i32 %186, -1
  %188 = and i32 %187, 65535
  %189 = and i32 %184, %188
  %190 = add nsw i32 %179, %189
  %191 = trunc i32 %190 to i16
  %192 = load ptr, ptr %9, align 8
  store i16 %191, ptr %192, align 2
  %193 = load ptr, ptr %7, align 8
  %194 = getelementptr inbounds nuw i16, ptr %193, i32 1
  store ptr %194, ptr %7, align 8
  %195 = load ptr, ptr %9, align 8
  %196 = getelementptr inbounds nuw i16, ptr %195, i32 1
  store ptr %196, ptr %9, align 8
  call void @llvm.lifetime.end.p0(i64 2, ptr %19) #3
  call void @llvm.lifetime.end.p0(i64 2, ptr %18) #3
  br label %197

197:                                              ; preds = %162, %159
  %198 = load i32, ptr %8, align 4
  %199 = sub nsw i32 %198, 1
  %200 = load ptr, ptr %7, align 8
  %201 = sext i32 %199 to i64
  %202 = getelementptr inbounds i16, ptr %200, i64 %201
  store ptr %202, ptr %7, align 8
  %203 = load i32, ptr %10, align 4
  %204 = load ptr, ptr %9, align 8
  %205 = sext i32 %203 to i64
  %206 = getelementptr inbounds i16, ptr %204, i64 %205
  store ptr %206, ptr %9, align 8
  call void @llvm.lifetime.end.p0(i64 4, ptr %12) #3
  call void @llvm.lifetime.end.p0(i64 4, ptr %11) #3
  br label %342

207:                                              ; preds = %51
  call void @llvm.lifetime.start.p0(i64 4, ptr %20) #3
  %208 = load i32, ptr %5, align 4
  store i32 %208, ptr %20, align 4
  %209 = load ptr, ptr %7, align 8
  %210 = ptrtoint ptr %209 to i64
  %211 = and i64 %210, 2
  %212 = icmp ne i64 %211, 0
  br i1 %212, label %213, label %249

213:                                              ; preds = %207
  call void @llvm.lifetime.start.p0(i64 2, ptr %21) #3
  %214 = load ptr, ptr %9, align 8
  %215 = load i16, ptr %214, align 2
  store i16 %215, ptr %21, align 2
  call void @llvm.lifetime.start.p0(i64 2, ptr %22) #3
  %216 = load ptr, ptr %7, align 8
  %217 = load i16, ptr %216, align 2
  store i16 %217, ptr %22, align 2
  %218 = load i16, ptr %22, align 2
  %219 = zext i16 %218 to i32
  %220 = load i16, ptr %4, align 2
  %221 = zext i16 %220 to i32
  %222 = and i32 %219, %221
  %223 = load i16, ptr %21, align 2
  %224 = zext i16 %223 to i32
  %225 = load i16, ptr %4, align 2
  %226 = zext i16 %225 to i32
  %227 = and i32 %224, %226
  %228 = add nsw i32 %222, %227
  %229 = ashr i32 %228, 1
  %230 = load i16, ptr %22, align 2
  %231 = zext i16 %230 to i32
  %232 = load i16, ptr %21, align 2
  %233 = zext i16 %232 to i32
  %234 = and i32 %231, %233
  %235 = load i16, ptr %4, align 2
  %236 = zext i16 %235 to i32
  %237 = xor i32 %236, -1
  %238 = and i32 %237, 65535
  %239 = and i32 %234, %238
  %240 = add nsw i32 %229, %239
  %241 = trunc i32 %240 to i16
  %242 = load ptr, ptr %9, align 8
  store i16 %241, ptr %242, align 2
  %243 = load ptr, ptr %7, align 8
  %244 = getelementptr inbounds nuw i16, ptr %243, i32 1
  store ptr %244, ptr %7, align 8
  %245 = load ptr, ptr %9, align 8
  %246 = getelementptr inbounds nuw i16, ptr %245, i32 1
  store ptr %246, ptr %9, align 8
  %247 = load i32, ptr %20, align 4
  %248 = add nsw i32 %247, -1
  store i32 %248, ptr %20, align 4
  call void @llvm.lifetime.end.p0(i64 2, ptr %22) #3
  call void @llvm.lifetime.end.p0(i64 2, ptr %21) #3
  br label %249

249:                                              ; preds = %213, %207
  br label %250

250:                                              ; preds = %253, %249
  %251 = load i32, ptr %20, align 4
  %252 = icmp sgt i32 %251, 1
  br i1 %252, label %253, label %296

253:                                              ; preds = %250
  call void @llvm.lifetime.start.p0(i64 4, ptr %23) #3
  %254 = load ptr, ptr %7, align 8
  %255 = load i32, ptr %254, align 4
  store i32 %255, ptr %23, align 4
  call void @llvm.lifetime.start.p0(i64 4, ptr %24) #3
  %256 = load ptr, ptr %9, align 8
  %257 = load i32, ptr %256, align 4
  store i32 %257, ptr %24, align 4
  %258 = load i32, ptr %23, align 4
  %259 = load i16, ptr %4, align 2
  %260 = zext i16 %259 to i32
  %261 = load i16, ptr %4, align 2
  %262 = zext i16 %261 to i32
  %263 = shl i32 %262, 16
  %264 = or i32 %260, %263
  %265 = and i32 %258, %264
  %266 = lshr i32 %265, 1
  %267 = load i32, ptr %24, align 4
  %268 = load i16, ptr %4, align 2
  %269 = zext i16 %268 to i32
  %270 = load i16, ptr %4, align 2
  %271 = zext i16 %270 to i32
  %272 = shl i32 %271, 16
  %273 = or i32 %269, %272
  %274 = and i32 %267, %273
  %275 = lshr i32 %274, 1
  %276 = add i32 %266, %275
  %277 = load i32, ptr %23, align 4
  %278 = load i32, ptr %24, align 4
  %279 = and i32 %277, %278
  %280 = load i16, ptr %4, align 2
  %281 = zext i16 %280 to i32
  %282 = load i16, ptr %4, align 2
  %283 = zext i16 %282 to i32
  %284 = shl i32 %283, 16
  %285 = or i32 %281, %284
  %286 = xor i32 %285, -1
  %287 = and i32 %279, %286
  %288 = add i32 %276, %287
  %289 = load ptr, ptr %9, align 8
  store i32 %288, ptr %289, align 4
  %290 = load ptr, ptr %7, align 8
  %291 = getelementptr inbounds i16, ptr %290, i64 2
  store ptr %291, ptr %7, align 8
  %292 = load ptr, ptr %9, align 8
  %293 = getelementptr inbounds i16, ptr %292, i64 2
  store ptr %293, ptr %9, align 8
  %294 = load i32, ptr %20, align 4
  %295 = sub nsw i32 %294, 2
  store i32 %295, ptr %20, align 4
  call void @llvm.lifetime.end.p0(i64 4, ptr %24) #3
  call void @llvm.lifetime.end.p0(i64 4, ptr %23) #3
  br label %250, !llvm.loop !33

296:                                              ; preds = %250
  %297 = load i32, ptr %20, align 4
  %298 = icmp ne i32 %297, 0
  br i1 %298, label %299, label %333

299:                                              ; preds = %296
  call void @llvm.lifetime.start.p0(i64 2, ptr %25) #3
  %300 = load ptr, ptr %9, align 8
  %301 = load i16, ptr %300, align 2
  store i16 %301, ptr %25, align 2
  call void @llvm.lifetime.start.p0(i64 2, ptr %26) #3
  %302 = load ptr, ptr %7, align 8
  %303 = load i16, ptr %302, align 2
  store i16 %303, ptr %26, align 2
  %304 = load i16, ptr %26, align 2
  %305 = zext i16 %304 to i32
  %306 = load i16, ptr %4, align 2
  %307 = zext i16 %306 to i32
  %308 = and i32 %305, %307
  %309 = load i16, ptr %25, align 2
  %310 = zext i16 %309 to i32
  %311 = load i16, ptr %4, align 2
  %312 = zext i16 %311 to i32
  %313 = and i32 %310, %312
  %314 = add nsw i32 %308, %313
  %315 = ashr i32 %314, 1
  %316 = load i16, ptr %26, align 2
  %317 = zext i16 %316 to i32
  %318 = load i16, ptr %25, align 2
  %319 = zext i16 %318 to i32
  %320 = and i32 %317, %319
  %321 = load i16, ptr %4, align 2
  %322 = zext i16 %321 to i32
  %323 = xor i32 %322, -1
  %324 = and i32 %323, 65535
  %325 = and i32 %320, %324
  %326 = add nsw i32 %315, %325
  %327 = trunc i32 %326 to i16
  %328 = load ptr, ptr %9, align 8
  store i16 %327, ptr %328, align 2
  %329 = load ptr, ptr %7, align 8
  %330 = getelementptr inbounds nuw i16, ptr %329, i32 1
  store ptr %330, ptr %7, align 8
  %331 = load ptr, ptr %9, align 8
  %332 = getelementptr inbounds nuw i16, ptr %331, i32 1
  store ptr %332, ptr %9, align 8
  call void @llvm.lifetime.end.p0(i64 2, ptr %26) #3
  call void @llvm.lifetime.end.p0(i64 2, ptr %25) #3
  br label %333

333:                                              ; preds = %299, %296
  %334 = load i32, ptr %8, align 4
  %335 = load ptr, ptr %7, align 8
  %336 = sext i32 %334 to i64
  %337 = getelementptr inbounds i16, ptr %335, i64 %336
  store ptr %337, ptr %7, align 8
  %338 = load i32, ptr %10, align 4
  %339 = load ptr, ptr %9, align 8
  %340 = sext i32 %338 to i64
  %341 = getelementptr inbounds i16, ptr %339, i64 %340
  store ptr %341, ptr %9, align 8
  call void @llvm.lifetime.end.p0(i64 4, ptr %20) #3
  br label %342

342:                                              ; preds = %333, %197
  br label %47, !llvm.loop !34

343:                                              ; preds = %47
  call void @llvm.lifetime.end.p0(i64 4, ptr %10) #3
  call void @llvm.lifetime.end.p0(i64 8, ptr %9) #3
  call void @llvm.lifetime.end.p0(i64 4, ptr %8) #3
  call void @llvm.lifetime.end.p0(i64 8, ptr %7) #3
  call void @llvm.lifetime.end.p0(i64 4, ptr %6) #3
  call void @llvm.lifetime.end.p0(i64 4, ptr %5) #3
  ret void
}