; Function Attrs: nofree norecurse nosync nounwind memory(readwrite, inaccessiblemem: none) uwtable
define internal fastcc void @Blit16to16SurfaceAlpha128(ptr noundef readonly captures(none) %0, i16 noundef zeroext range(i16 -2082, -1057) %1) unnamed_addr #2 {
  %3 = getelementptr inbounds nuw i8, ptr %0, i64 48
  %4 = load i32, ptr %3, align 8
  %5 = getelementptr inbounds nuw i8, ptr %0, i64 52
  %6 = load i32, ptr %5, align 4
  %.not146 = icmp eq i32 %6, 0
  br i1 %.not146, label %._crit_edge151, label %.lr.ph150

.lr.ph150:                                        ; preds = %2
  %7 = getelementptr inbounds nuw i8, ptr %0, i64 60
  %8 = load i32, ptr %7, align 4
  %9 = ashr i32 %8, 1
  %10 = getelementptr inbounds nuw i8, ptr %0, i64 40
  %11 = load ptr, ptr %10, align 8
  %12 = getelementptr inbounds nuw i8, ptr %0, i64 28
  %13 = load i32, ptr %12, align 4
  %14 = ashr i32 %13, 1
  %15 = getelementptr inbounds nuw i8, ptr %0, i64 8
  %16 = load ptr, ptr %15, align 8
  %17 = zext i16 %1 to i32
  %18 = and i32 %17, 4095
  %19 = xor i32 %18, 4095
  %20 = add nsw i32 %4, -1
  %21 = mul nuw i32 %17, 65537
  %22 = xor i32 %21, -1
  %23 = sext i32 %14 to i64
  %24 = sext i32 %9 to i64
  br label %25

25:                                               ; preds = %.lr.ph150, %135
  %.in = phi i32 [ %6, %.lr.ph150 ], [ %26, %135 ]
  %.0111148 = phi ptr [ %16, %.lr.ph150 ], [ %.4, %135 ]
  %.0112147 = phi ptr [ %11, %.lr.ph150 ], [ %.4116, %135 ]
  %26 = add nsw i32 %.in, -1
  %27 = ptrtoint ptr %.0111148 to i64
  %28 = ptrtoint ptr %.0112147 to i64
  %29 = xor i64 %27, %28
  %30 = and i64 %29, 2
  %.not125 = icmp eq i64 %30, 0
  br i1 %.not125, label %85, label %31

31:                                               ; preds = %25
  %32 = and i64 %28, 2
  %.not128 = icmp eq i64 %32, 0
  br i1 %.not128, label %48, label %33

33:                                               ; preds = %31
  %34 = load i16, ptr %.0112147, align 2
  %35 = load i16, ptr %.0111148, align 2
  %36 = zext i16 %35 to i32
  %37 = and i32 %36, %17
  %38 = zext i16 %34 to i32
  %39 = and i32 %38, %17
  %40 = add nuw nsw i32 %37, %39
  %41 = lshr i32 %40, 1
  %42 = and i32 %19, %38
  %43 = and i32 %42, %36
  %44 = add nuw nsw i32 %41, %43
  %45 = trunc i32 %44 to i16
  store i16 %45, ptr %.0112147, align 2
  %46 = getelementptr inbounds nuw i8, ptr %.0112147, i64 2
  %47 = getelementptr inbounds nuw i8, ptr %.0111148, i64 2
  br label %48

48:                                               ; preds = %33, %31
  %.0121 = phi i32 [ %20, %33 ], [ %4, %31 ]
  %.1113 = phi ptr [ %46, %33 ], [ %.0112147, %31 ]
  %.1 = phi ptr [ %47, %33 ], [ %.0111148, %31 ]
  %49 = getelementptr inbounds nuw i8, ptr %.1, i64 2
  %50 = getelementptr inbounds i8, ptr %.1, i64 -2
  %51 = load i32, ptr %50, align 4
  %52 = icmp sgt i32 %.0121, 1
  br i1 %52, label %.lr.ph, label %._crit_edge

.lr.ph:                                           ; preds = %48, %.lr.ph
  %.2133 = phi ptr [ %65, %.lr.ph ], [ %49, %48 ]
  %.2114132 = phi ptr [ %64, %.lr.ph ], [ %.1113, %48 ]
  %.0120131 = phi i32 [ %53, %.lr.ph ], [ %51, %48 ]
  %.1122130 = phi i32 [ %66, %.lr.ph ], [ %.0121, %48 ]
  %53 = load i32, ptr %.2133, align 4
  %54 = load i32, ptr %.2114132, align 4
  %55 = tail call i32 @llvm.fshl.i32(i32 %53, i32 %.0120131, i32 16)
  %56 = and i32 %55, %21
  %57 = lshr i32 %56, 1
  %58 = and i32 %54, %21
  %59 = lshr i32 %58, 1
  %60 = add nuw i32 %57, %59
  %61 = and i32 %54, %22
  %62 = and i32 %61, %55
  %63 = add i32 %60, %62
  store i32 %63, ptr %.2114132, align 4
  %64 = getelementptr inbounds nuw i8, ptr %.2114132, i64 4
  %65 = getelementptr inbounds nuw i8, ptr %.2133, i64 4
  %66 = add nsw i32 %.1122130, -2
  %67 = icmp samesign ugt i32 %.1122130, 3
  br i1 %67, label %.lr.ph, label %._crit_edge, !llvm.loop !32

._crit_edge:                                      ; preds = %.lr.ph, %48
  %.1122.lcssa = phi i32 [ %.0121, %48 ], [ %66, %.lr.ph ]
  %.0120.lcssa = phi i32 [ %51, %48 ], [ %53, %.lr.ph ]
  %.2114.lcssa = phi ptr [ %.1113, %48 ], [ %64, %.lr.ph ]
  %.2.lcssa = phi ptr [ %49, %48 ], [ %65, %.lr.ph ]
  %.not129 = icmp eq i32 %.1122.lcssa, 0
  br i1 %.not129, label %82, label %68

68:                                               ; preds = %._crit_edge
  %69 = load i16, ptr %.2114.lcssa, align 2
  %70 = lshr i32 %.0120.lcssa, 16
  %71 = and i32 %70, %17
  %72 = zext i16 %69 to i32
  %73 = and i32 %72, %17
  %74 = add nuw nsw i32 %73, %71
  %75 = lshr i32 %74, 1
  %76 = and i32 %70, %19
  %77 = and i32 %76, %72
  %78 = add nuw nsw i32 %75, %77
  %79 = trunc i32 %78 to i16
  store i16 %79, ptr %.2114.lcssa, align 2
  %80 = getelementptr inbounds nuw i8, ptr %.2.lcssa, i64 2
  %81 = getelementptr inbounds nuw i8, ptr %.2114.lcssa, i64 2
  br label %82

82:                                               ; preds = %68, %._crit_edge
  %.3115 = phi ptr [ %81, %68 ], [ %.2114.lcssa, %._crit_edge ]
  %.3 = phi ptr [ %80, %68 ], [ %.2.lcssa, %._crit_edge ]
  %83 = getelementptr i16, ptr %.3, i64 %23
  %84 = getelementptr i8, ptr %83, i64 -2
  br label %135

85:                                               ; preds = %25
  %86 = and i64 %27, 2
  %.not126 = icmp eq i64 %86, 0
  br i1 %.not126, label %102, label %87

87:                                               ; preds = %85
  %88 = load i16, ptr %.0112147, align 2
  %89 = load i16, ptr %.0111148, align 2
  %90 = zext i16 %89 to i32
  %91 = and i32 %90, %17
  %92 = zext i16 %88 to i32
  %93 = and i32 %92, %17
  %94 = add nuw nsw i32 %91, %93
  %95 = lshr i32 %94, 1
  %96 = and i32 %19, %92
  %97 = and i32 %96, %90
  %98 = add nuw nsw i32 %95, %97
  %99 = trunc i32 %98 to i16
  store i16 %99, ptr %.0112147, align 2
  %100 = getelementptr inbounds nuw i8, ptr %.0111148, i64 2
  %101 = getelementptr inbounds nuw i8, ptr %.0112147, i64 2
  br label %102

102:                                              ; preds = %87, %85
  %.0123 = phi i32 [ %20, %87 ], [ %4, %85 ]
  %.5117 = phi ptr [ %101, %87 ], [ %.0112147, %85 ]
  %.5 = phi ptr [ %100, %87 ], [ %.0111148, %85 ]
  %103 = icmp sgt i32 %.0123, 1
  br i1 %103, label %.lr.ph141, label %._crit_edge142

.lr.ph141:                                        ; preds = %102, %.lr.ph141
  %.6139 = phi ptr [ %114, %.lr.ph141 ], [ %.5, %102 ]
  %.6118138 = phi ptr [ %115, %.lr.ph141 ], [ %.5117, %102 ]
  %.1124137 = phi i32 [ %116, %.lr.ph141 ], [ %.0123, %102 ]
  %104 = load i32, ptr %.6139, align 4
  %105 = load i32, ptr %.6118138, align 4
  %106 = and i32 %104, %21
  %107 = lshr i32 %106, 1
  %108 = and i32 %105, %21
  %109 = lshr i32 %108, 1
  %110 = add nuw i32 %109, %107
  %111 = and i32 %104, %22
  %112 = and i32 %111, %105
  %113 = add i32 %110, %112
  store i32 %113, ptr %.6118138, align 4
  %114 = getelementptr inbounds nuw i8, ptr %.6139, i64 4
  %115 = getelementptr inbounds nuw i8, ptr %.6118138, i64 4
  %116 = add nsw i32 %.1124137, -2
  %117 = icmp samesign ugt i32 %.1124137, 3
  br i1 %117, label %.lr.ph141, label %._crit_edge142, !llvm.loop !33

._crit_edge142:                                   ; preds = %.lr.ph141, %102
  %.1124.lcssa = phi i32 [ %.0123, %102 ], [ %116, %.lr.ph141 ]
  %.6118.lcssa = phi ptr [ %.5117, %102 ], [ %115, %.lr.ph141 ]
  %.6.lcssa = phi ptr [ %.5, %102 ], [ %114, %.lr.ph141 ]
  %.not127 = icmp eq i32 %.1124.lcssa, 0
  br i1 %.not127, label %133, label %118

118:                                              ; preds = %._crit_edge142
  %119 = load i16, ptr %.6118.lcssa, align 2
  %120 = load i16, ptr %.6.lcssa, align 2
  %121 = zext i16 %120 to i32
  %122 = and i32 %121, %17
  %123 = zext i16 %119 to i32
  %124 = and i32 %123, %17
  %125 = add nuw nsw i32 %122, %124
  %126 = lshr i32 %125, 1
  %127 = and i32 %19, %123
  %128 = and i32 %127, %121
  %129 = add nuw nsw i32 %126, %128
  %130 = trunc i32 %129 to i16
  store i16 %130, ptr %.6118.lcssa, align 2
  %131 = getelementptr inbounds nuw i8, ptr %.6.lcssa, i64 2
  %132 = getelementptr inbounds nuw i8, ptr %.6118.lcssa, i64 2
  br label %133

133:                                              ; preds = %118, %._crit_edge142
  %.7119 = phi ptr [ %132, %118 ], [ %.6118.lcssa, %._crit_edge142 ]
  %.7 = phi ptr [ %131, %118 ], [ %.6.lcssa, %._crit_edge142 ]
  %134 = getelementptr inbounds i16, ptr %.7, i64 %23
  br label %135

135:                                              ; preds = %133, %82
  %.3115.pn = phi ptr [ %.3115, %82 ], [ %.7119, %133 ]
  %.4 = phi ptr [ %84, %82 ], [ %134, %133 ]
  %.4116 = getelementptr inbounds i16, ptr %.3115.pn, i64 %24
  %.not = icmp eq i32 %26, 0
  br i1 %.not, label %._crit_edge151, label %25, !llvm.loop !34

._crit_edge151:                                   ; preds = %135, %2
  ret void
}